target datalayout = "e-m:e-p270:32:32-p271:32:32-p272:64:64-i64:64-i128:128-f80:128-n8:16:32:64-S128"
target triple = "x86_64-pc-linux-gnu"

; Function Attrs: nounwind uwtable
define dso_local zeroext i1 @member_can_set_role(i32 noundef %0, i32 noundef %1) #0 {
  %3 = alloca i1, align 1
  %4 = alloca i32, align 4
  %5 = alloca i32, align 4
  store i32 %0, ptr %4, align 4
  store i32 %1, ptr %5, align 4
  %6 = load i32, ptr %4, align 4
  %7 = load i32, ptr %5, align 4
  %8 = icmp eq i32 %6, %7
  br i1 %8, label %9, label %10

9:                                                ; preds = %2
  store i1 true, ptr %3, align 1
  br label %19

10:                                               ; preds = %2
  %11 = load i32, ptr %4, align 4
  %12 = call zeroext i1 @superuser_arg(i32 noundef %11)
  br i1 %12, label %13, label %14

13:                                               ; preds = %10
  store i1 true, ptr %3, align 1
  br label %19

14:                                               ; preds = %10
  %15 = load i32, ptr %4, align 4
  %16 = call ptr @roles_is_member_of(i32 noundef %15, i32 noundef 2, i32 noundef 0, ptr noundef null)
  %17 = load i32, ptr %5, align 4
  %18 = call zeroext i1 @list_member_oid(ptr noundef %16, i32 noundef %17)
  store i1 %18, ptr %3, align 1
  br label %19

19:                                               ; preds = %14, %13, %9
  %20 = load i1, ptr %3, align 1
  ret i1 %20
}