; Function Attrs: nounwind uwtable
define dso_local zeroext i1 @member_can_set_role(i32 noundef %0, i32 noundef %1) local_unnamed_addr #0 {
  %3 = icmp eq i32 %0, %1
  br i1 %3, label %9, label %4

4:                                                ; preds = %2
  %5 = tail call zeroext i1 @superuser_arg(i32 noundef %0) #14
  br i1 %5, label %9, label %6

6:                                                ; preds = %4
  %7 = tail call fastcc ptr @roles_is_member_of(i32 noundef %0, i32 noundef 2, i32 noundef 0, ptr noundef null)
  %8 = tail call zeroext i1 @list_member_oid(ptr noundef %7, i32 noundef %1) #14
  br label %9

9:                                                ; preds = %4, %2, %6
  %.0 = phi i1 [ %8, %6 ], [ true, %2 ], [ true, %4 ]
  ret i1 %.0
}